target datalayout = "e-m:e-p270:32:32-p271:32:32-p272:64:64-i64:64-i128:128-f80:128-n8:16:32:64-S128"
target triple = "x86_64-pc-linux-gnu"

%"class.casadi::MX" = type { %"class.casadi::SharedObject" }
%"class.casadi::SharedObject" = type { ptr }
%"class.casadi::Sparsity" = type { %"class.casadi::SharedObject" }
%"struct.std::_Vector_base" = type { %"struct.std::_Vector_base<casadi::MX, std::allocator<casadi::MX>>::_Vector_impl" }
%"struct.std::_Vector_base<casadi::MX, std::allocator<casadi::MX>>::_Vector_impl" = type { %"struct.std::_Vector_base<casadi::MX, std::allocator<casadi::MX>>::_Vector_impl_data" }
%"struct.std::_Vector_base<casadi::MX, std::allocator<casadi::MX>>::_Vector_impl_data" = type { ptr, ptr, ptr }
%"class.std::vector" = type { %"struct.std::_Vector_base" }
%"class.casadi::MXNode" = type { %"class.casadi::SharedObjectInternal", i64, %"class.std::vector", %"class.casadi::Sparsity" }
%"class.casadi::SharedObjectInternal" = type { ptr, i64, ptr }
%"struct.casadi::SparsityStruct" = type { i64, i64, ptr, ptr }

@.str.15 = private unnamed_addr constant [74 x i8] c"vector::_M_range_check: __n (which is %zu) >= this->size() (which is %zu)\00", align 1

; Function Attrs: mustprogress nounwind uwtable
define linkonce_odr hidden noundef i64 @_ZNKSt6vectorIN6casadi2MXESaIS1_EE4sizeEv(ptr noundef nonnull align 8 dereferenceable(24) %0) #5 comdat align 2 {
  %2 = alloca ptr, align 8
  store ptr %0, ptr %2, align 8
  %3 = load ptr, ptr %2, align 8
  %4 = getelementptr inbounds %"struct.std::_Vector_base", ptr %3, i32 0, i32 0
  %5 = getelementptr inbounds %"struct.std::_Vector_base<casadi::MX, std::allocator<casadi::MX>>::_Vector_impl_data", ptr %4, i32 0, i32 1
  %6 = load ptr, ptr %5, align 8
  %7 = getelementptr inbounds %"struct.std::_Vector_base", ptr %3, i32 0, i32 0
  %8 = getelementptr inbounds %"struct.std::_Vector_base<casadi::MX, std::allocator<casadi::MX>>::_Vector_impl_data", ptr %7, i32 0, i32 0
  %9 = load ptr, ptr %8, align 8
  %10 = ptrtoint ptr %6 to i64
  %11 = ptrtoint ptr %9 to i64
  %12 = sub i64 %10, %11
  %13 = sdiv exact i64 %12, 8
  ret i64 %13
}

; Function Attrs: mustprogress nounwind uwtable
define linkonce_odr hidden noundef nonnull align 8 dereferenceable(8) ptr @_ZNKSt6vectorIN6casadi2MXESaIS1_EEixEm(ptr noundef nonnull align 8 dereferenceable(24) %0, i64 noundef %1) #5 comdat align 2 {
  %3 = alloca ptr, align 8
  %4 = alloca i64, align 8
  store ptr %0, ptr %3, align 8
  store i64 %1, ptr %4, align 8
  %5 = load ptr, ptr %3, align 8
  %6 = getelementptr inbounds %"struct.std::_Vector_base", ptr %5, i32 0, i32 0
  %7 = getelementptr inbounds %"struct.std::_Vector_base<casadi::MX, std::allocator<casadi::MX>>::_Vector_impl_data", ptr %6, i32 0, i32 0
  %8 = load ptr, ptr %7, align 8
  %9 = load i64, ptr %4, align 8
  %10 = getelementptr inbounds %"class.casadi::MX", ptr %8, i64 %9
  ret ptr %10
}

; Function Attrs: mustprogress uwtable
define linkonce_odr hidden void @_ZNKSt6vectorIN6casadi2MXESaIS1_EE14_M_range_checkEm(ptr noundef nonnull align 8 dereferenceable(24) %0, i64 noundef %1) #4 comdat align 2 {
  %3 = alloca ptr, align 8
  %4 = alloca i64, align 8
  store ptr %0, ptr %3, align 8
  store i64 %1, ptr %4, align 8
  %5 = load ptr, ptr %3, align 8
  %6 = load i64, ptr %4, align 8
  %7 = call noundef i64 @_ZNKSt6vectorIN6casadi2MXESaIS1_EE4sizeEv(ptr noundef nonnull align 8 dereferenceable(24) %5) #3
  %8 = icmp uge i64 %6, %7
  br i1 %8, label %9, label %12

9:                                                ; preds = %2
  %10 = load i64, ptr %4, align 8
  %11 = call noundef i64 @_ZNKSt6vectorIN6casadi2MXESaIS1_EE4sizeEv(ptr noundef nonnull align 8 dereferenceable(24) %5) #3
  call void (ptr, ...) @_ZSt24__throw_out_of_range_fmtPKcz(ptr noundef @.str.15, i64 noundef %10, i64 noundef %11) #11
  unreachable

12:                                               ; preds = %2
  ret void
}

; Function Attrs: mustprogress uwtable
define linkonce_odr hidden noundef nonnull align 8 dereferenceable(8) ptr @_ZNKSt6vectorIN6casadi2MXESaIS1_EE2atEm(ptr noundef nonnull align 8 dereferenceable(24) %0, i64 noundef %1) #4 comdat align 2 {
  %3 = alloca ptr, align 8
  %4 = alloca i64, align 8
  store ptr %0, ptr %3, align 8
  store i64 %1, ptr %4, align 8
  %5 = load ptr, ptr %3, align 8
  %6 = load i64, ptr %4, align 8
  call void @_ZNKSt6vectorIN6casadi2MXESaIS1_EE14_M_range_checkEm(ptr noundef nonnull align 8 dereferenceable(24) %5, i64 noundef %6)
  %7 = load i64, ptr %4, align 8
  %8 = call noundef nonnull align 8 dereferenceable(8) ptr @_ZNKSt6vectorIN6casadi2MXESaIS1_EEixEm(ptr noundef nonnull align 8 dereferenceable(24) %5, i64 noundef %7) #3
  ret ptr %8
}

; Function Attrs: mustprogress uwtable
define linkonce_odr hidden noundef nonnull align 8 dereferenceable(8) ptr @_ZNK6casadi6MXNode3depEx(ptr noundef nonnull align 8 dereferenceable(64) %0, i64 noundef %1) #4 comdat align 2 {
  %3 = alloca ptr, align 8
  %4 = alloca i64, align 8
  store ptr %0, ptr %3, align 8
  store i64 %1, ptr %4, align 8
  %5 = load ptr, ptr %3, align 8
  %6 = getelementptr inbounds %"class.casadi::MXNode", ptr %5, i32 0, i32 2
  %7 = load i64, ptr %4, align 8
  %8 = call noundef nonnull align 8 dereferenceable(8) ptr @_ZNKSt6vectorIN6casadi2MXESaIS1_EE2atEm(ptr noundef nonnull align 8 dereferenceable(24) %6, i64 noundef %7)
  ret ptr %8
}

; Function Attrs: mustprogress uwtable
define noundef i32 @_ZNK6casadi5Bilin10sp_reverseEPPyS2_PxS1_(ptr noundef nonnull align 8 dereferenceable(64) %0, ptr noundef %1, ptr noundef %2, ptr noundef %3, ptr noundef %4) unnamed_addr #4 align 2 {
  %6 = alloca ptr, align 8
  %7 = alloca ptr, align 8
  %8 = alloca ptr, align 8
  %9 = alloca ptr, align 8
  %10 = alloca ptr, align 8
  %11 = alloca i64, align 8
  %12 = alloca %"struct.casadi::SparsityStruct", align 8
  %13 = alloca i64, align 8
  %14 = alloca i64, align 8
  %15 = alloca i64, align 8
  store ptr %0, ptr %6, align 8
  store ptr %1, ptr %7, align 8
  store ptr %2, ptr %8, align 8
  store ptr %3, ptr %9, align 8
  store ptr %4, ptr %10, align 8
  %16 = load ptr, ptr %6, align 8
  %17 = load ptr, ptr %8, align 8
  %18 = getelementptr inbounds ptr, ptr %17, i64 0
  %19 = load ptr, ptr %18, align 8
  %20 = getelementptr inbounds i64, ptr %19, i64 0
  %21 = load i64, ptr %20, align 8
  store i64 %21, ptr %11, align 8
  %22 = load ptr, ptr %8, align 8
  %23 = getelementptr inbounds ptr, ptr %22, i64 0
  %24 = load ptr, ptr %23, align 8
  %25 = getelementptr inbounds i64, ptr %24, i64 0
  store i64 0, ptr %25, align 8
  %26 = call noundef nonnull align 8 dereferenceable(8) ptr @_ZNK6casadi6MXNode3depEx(ptr noundef nonnull align 8 dereferenceable(64) %16, i64 noundef 0)
  %27 = call noundef nonnull align 8 dereferenceable(8) ptr @_ZNK6casadi2MX8sparsityEv(ptr noundef nonnull align 8 dereferenceable(8) %26)
  call void @_ZNK6casadi8SparsitycvNS_14SparsityStructEEv(ptr dead_on_unwind writable sret(%"struct.casadi::SparsityStruct") align 8 %12, ptr noundef nonnull align 8 dereferenceable(8) %27)
  store i64 0, ptr %13, align 8
  br label %28

28:                                               ; preds = %82, %5
  %29 = load i64, ptr %13, align 8
  %30 = getelementptr inbounds %"struct.casadi::SparsityStruct", ptr %12, i32 0, i32 1
  %31 = load i64, ptr %30, align 8
  %32 = icmp slt i64 %29, %31
  br i1 %32, label %33, label %85

33:                                               ; preds = %28
  %34 = getelementptr inbounds %"struct.casadi::SparsityStruct", ptr %12, i32 0, i32 2
  %35 = load ptr, ptr %34, align 8
  %36 = load i64, ptr %13, align 8
  %37 = getelementptr inbounds i64, ptr %35, i64 %36
  %38 = load i64, ptr %37, align 8
  store i64 %38, ptr %15, align 8
  br label %39

39:                                               ; preds = %78, %33
  %40 = load i64, ptr %15, align 8
  %41 = getelementptr inbounds %"struct.casadi::SparsityStruct", ptr %12, i32 0, i32 2
  %42 = load ptr, ptr %41, align 8
  %43 = load i64, ptr %13, align 8
  %44 = add nsw i64 %43, 1
  %45 = getelementptr inbounds i64, ptr %42, i64 %44
  %46 = load i64, ptr %45, align 8
  %47 = icmp slt i64 %40, %46
  br i1 %47, label %48, label %81

48:                                               ; preds = %39
  %49 = getelementptr inbounds %"struct.casadi::SparsityStruct", ptr %12, i32 0, i32 3
  %50 = load ptr, ptr %49, align 8
  %51 = load i64, ptr %15, align 8
  %52 = getelementptr inbounds i64, ptr %50, i64 %51
  %53 = load i64, ptr %52, align 8
  store i64 %53, ptr %14, align 8
  %54 = load i64, ptr %11, align 8
  %55 = load ptr, ptr %7, align 8
  %56 = getelementptr inbounds ptr, ptr %55, i64 0
  %57 = load ptr, ptr %56, align 8
  %58 = load i64, ptr %15, align 8
  %59 = getelementptr inbounds i64, ptr %57, i64 %58
  %60 = load i64, ptr %59, align 8
  %61 = or i64 %60, %54
  store i64 %61, ptr %59, align 8
  %62 = load i64, ptr %11, align 8
  %63 = load ptr, ptr %7, align 8
  %64 = getelementptr inbounds ptr, ptr %63, i64 1
  %65 = load ptr, ptr %64, align 8
  %66 = load i64, ptr %14, align 8
  %67 = getelementptr inbounds i64, ptr %65, i64 %66
  %68 = load i64, ptr %67, align 8
  %69 = or i64 %68, %62
  store i64 %69, ptr %67, align 8
  %70 = load i64, ptr %11, align 8
  %71 = load ptr, ptr %7, align 8
  %72 = getelementptr inbounds ptr, ptr %71, i64 2
  %73 = load ptr, ptr %72, align 8
  %74 = load i64, ptr %13, align 8
  %75 = getelementptr inbounds i64, ptr %73, i64 %74
  %76 = load i64, ptr %75, align 8
  %77 = or i64 %76, %70
  store i64 %77, ptr %75, align 8
  br label %78

78:                                               ; preds = %48
  %79 = load i64, ptr %15, align 8
  %80 = add nsw i64 %79, 1
  store i64 %80, ptr %15, align 8
  br label %39, !llvm.loop !9

81:                                               ; preds = %39
  br label %82

82:                                               ; preds = %81
  %83 = load i64, ptr %13, align 8
  %84 = add nsw i64 %83, 1
  store i64 %84, ptr %13, align 8
  br label %28, !llvm.loop !10

85:                                               ; preds = %28
  ret i32 0
}