; Function Attrs: mustprogress uwtable
define noundef i32 @_ZNK6casadi5Bilin10sp_reverseEPPyS2_PxS1_(ptr nocapture noundef nonnull readonly align 8 dereferenceable(64) %0, ptr nocapture noundef readonly %1, ptr nocapture noundef readonly %2, ptr nocapture readnone %3, ptr nocapture readnone %4) unnamed_addr #3 align 2 {
  %6 = alloca %"struct.casadi::SparsityStruct", align 8
  %7 = load ptr, ptr %2, align 8
  %8 = load i64, ptr %7, align 8
  store i64 0, ptr %7, align 8
  %9 = getelementptr inbounds i8, ptr %0, i64 32
  %10 = getelementptr inbounds i8, ptr %0, i64 40
  %11 = load ptr, ptr %10, align 8
  %12 = load ptr, ptr %9, align 8
  %.not.i.i.i.not = icmp eq ptr %11, %12
  br i1 %.not.i.i.i.not, label %13, label %_ZNK6casadi6MXNode3depEx.exit

13:                                               ; preds = %5
  tail call void (ptr, ...) @_ZSt24__throw_out_of_range_fmtPKcz(ptr noundef nonnull @.str.15, i64 noundef 0, i64 noundef 0) #14
  unreachable

_ZNK6casadi6MXNode3depEx.exit:                    ; preds = %5
  %14 = tail call noundef nonnull align 8 dereferenceable(8) ptr @_ZNK6casadi2MX8sparsityEv(ptr noundef nonnull align 8 dereferenceable(8) %12)
  call void @_ZNK6casadi8SparsitycvNS_14SparsityStructEEv(ptr dead_on_unwind nonnull writable sret(%"struct.casadi::SparsityStruct") align 8 %6, ptr noundef nonnull align 8 dereferenceable(8) %14)
  %15 = getelementptr inbounds i8, ptr %6, i64 8
  %16 = load i64, ptr %15, align 8
  %17 = icmp sgt i64 %16, 0
  br i1 %17, label %.lr.ph21, label %._crit_edge

.lr.ph21:                                         ; preds = %_ZNK6casadi6MXNode3depEx.exit
  %18 = getelementptr inbounds i8, ptr %6, i64 16
  %19 = getelementptr inbounds i8, ptr %6, i64 24
  %20 = getelementptr inbounds i8, ptr %1, i64 8
  %21 = getelementptr inbounds i8, ptr %1, i64 16
  %.pre = load ptr, ptr %18, align 8
  br label %25

.loopexit.loopexit:                               ; preds = %.lr.ph
  %.pre22 = load i64, ptr %15, align 8
  br label %.loopexit

.loopexit:                                        ; preds = %.loopexit.loopexit, %25
  %22 = phi i64 [ %.pre22, %.loopexit.loopexit ], [ %26, %25 ]
  %23 = phi ptr [ %50, %.loopexit.loopexit ], [ %27, %25 ]
  %24 = icmp slt i64 %30, %22
  br i1 %24, label %25, label %._crit_edge, !llvm.loop !18

25:                                               ; preds = %.lr.ph21, %.loopexit
  %26 = phi i64 [ %16, %.lr.ph21 ], [ %22, %.loopexit ]
  %27 = phi ptr [ %.pre, %.lr.ph21 ], [ %23, %.loopexit ]
  %.01820 = phi i64 [ 0, %.lr.ph21 ], [ %30, %.loopexit ]
  %28 = getelementptr inbounds i64, ptr %27, i64 %.01820
  %29 = load i64, ptr %28, align 8
  %30 = add nuw nsw i64 %.01820, 1
  %31 = getelementptr inbounds i64, ptr %27, i64 %30
  %32 = load i64, ptr %31, align 8
  %33 = icmp slt i64 %29, %32
  br i1 %33, label %.lr.ph, label %.loopexit

.lr.ph:                                           ; preds = %25, %.lr.ph
  %.019 = phi i64 [ %49, %.lr.ph ], [ %29, %25 ]
  %34 = load ptr, ptr %19, align 8
  %35 = getelementptr inbounds i64, ptr %34, i64 %.019
  %36 = load i64, ptr %35, align 8
  %37 = load ptr, ptr %1, align 8
  %38 = getelementptr inbounds i64, ptr %37, i64 %.019
  %39 = load i64, ptr %38, align 8
  %40 = or i64 %39, %8
  store i64 %40, ptr %38, align 8
  %41 = load ptr, ptr %20, align 8
  %42 = getelementptr inbounds i64, ptr %41, i64 %36
  %43 = load i64, ptr %42, align 8
  %44 = or i64 %43, %8
  store i64 %44, ptr %42, align 8
  %45 = load ptr, ptr %21, align 8
  %46 = getelementptr inbounds i64, ptr %45, i64 %.01820
  %47 = load i64, ptr %46, align 8
  %48 = or i64 %47, %8
  store i64 %48, ptr %46, align 8
  %49 = add nsw i64 %.019, 1
  %50 = load ptr, ptr %18, align 8
  %51 = getelementptr inbounds i64, ptr %50, i64 %30
  %52 = load i64, ptr %51, align 8
  %53 = icmp slt i64 %49, %52
  br i1 %53, label %.lr.ph, label %.loopexit.loopexit, !llvm.loop !19

._crit_edge:                                      ; preds = %.loopexit, %_ZNK6casadi6MXNode3depEx.exit
  ret i32 0
}